; Function Attrs: mustprogress uwtable
define void @_ZN6casadi17GetNonzerosSlice2C2ERNS_19DeserializingStreamE(ptr noundef nonnull align 8 dereferenceable(112) %0, ptr noundef nonnull align 8 dereferenceable(41) %1) unnamed_addr #3 align 2 personality ptr @__gxx_personality_v0 {
  %3 = alloca %"class.std::__cxx11::basic_string", align 8
  %4 = alloca %"class.std::allocator.8", align 1
  %5 = alloca %"class.std::__cxx11::basic_string", align 8
  %6 = alloca %"class.std::allocator.8", align 1
  tail call void @_ZN6casadi6MXNodeC2ERNS_19DeserializingStreamE(ptr noundef nonnull align 8 dereferenceable(64) %0, ptr noundef nonnull align 8 dereferenceable(41) %1)
  store ptr getelementptr inbounds ({ [109 x ptr] }, ptr @_ZTVN6casadi17GetNonzerosSlice2E, i64 0, i32 0, i64 2), ptr %0, align 8
  %7 = getelementptr inbounds i8, ptr %0, i64 64
  invoke void @_ZN6casadi5SliceC1Ev(ptr noundef nonnull align 8 dereferenceable(24) %7)
          to label %8 unwind label %19

8:                                                ; preds = %2
  %9 = getelementptr inbounds i8, ptr %0, i64 88
  invoke void @_ZN6casadi5SliceC1Ev(ptr noundef nonnull align 8 dereferenceable(24) %9)
          to label %10 unwind label %19

10:                                               ; preds = %8
  call void @_ZNSaIcEC1Ev(ptr noundef nonnull align 1 dereferenceable(1) %4) #22
  %11 = invoke noundef ptr @_ZNSt7__cxx1112basic_stringIcSt11char_traitsIcESaIcEE13_M_local_dataEv(ptr noundef nonnull align 8 dereferenceable(32) %3)
          to label %.noexc unwind label %21

.noexc:                                           ; preds = %10
  invoke void @_ZNSt7__cxx1112basic_stringIcSt11char_traitsIcESaIcEE12_Alloc_hiderC1EPcRKS3_(ptr noundef nonnull align 8 dereferenceable(8) %3, ptr noundef %11, ptr noundef nonnull align 1 dereferenceable(1) %4)
          to label %.noexc12 unwind label %21

.noexc12:                                         ; preds = %.noexc
  invoke void @_ZNSt7__cxx1112basic_stringIcSt11char_traitsIcESaIcEE12_M_constructIPKcEEvT_S8_St20forward_iterator_tag(ptr noundef nonnull align 8 dereferenceable(32) %3, ptr noundef nonnull @.str.32, ptr noundef nonnull getelementptr inbounds ([26 x i8], ptr @.str.32, i64 0, i64 25))
          to label %_ZNSt7__cxx1112basic_stringIcSt11char_traitsIcESaIcEEC2IS3_EEPKcRKS3_.exit unwind label %12

12:                                               ; preds = %.noexc12
  %13 = landingpad { ptr, i32 }
          cleanup
  call void @_ZNSaIcED2Ev(ptr noundef nonnull align 1 dereferenceable(1) %3) #22
  br label %.body

_ZNSt7__cxx1112basic_stringIcSt11char_traitsIcESaIcEEC2IS3_EEPKcRKS3_.exit: ; preds = %.noexc12
  invoke void @_ZN6casadi19DeserializingStream6unpackINS_5SliceEEEvRKNSt7__cxx1112basic_stringIcSt11char_traitsIcESaIcEEERT_(ptr noundef nonnull align 8 dereferenceable(41) %1, ptr noundef nonnull align 8 dereferenceable(32) %3, ptr noundef nonnull align 8 dereferenceable(24) %7)
          to label %14 unwind label %23

14:                                               ; preds = %_ZNSt7__cxx1112basic_stringIcSt11char_traitsIcESaIcEEC2IS3_EEPKcRKS3_.exit
  call void @_ZNSt7__cxx1112basic_stringIcSt11char_traitsIcESaIcEED1Ev(ptr noundef nonnull align 8 dereferenceable(32) %3) #22
  call void @_ZNSaIcED1Ev(ptr noundef nonnull align 1 dereferenceable(1) %4) #22
  call void @_ZNSaIcEC1Ev(ptr noundef nonnull align 1 dereferenceable(1) %6) #22
  %15 = invoke noundef ptr @_ZNSt7__cxx1112basic_stringIcSt11char_traitsIcESaIcEE13_M_local_dataEv(ptr noundef nonnull align 8 dereferenceable(32) %5)
          to label %.noexc13 unwind label %25

.noexc13:                                         ; preds = %14
  invoke void @_ZNSt7__cxx1112basic_stringIcSt11char_traitsIcESaIcEE12_Alloc_hiderC1EPcRKS3_(ptr noundef nonnull align 8 dereferenceable(8) %5, ptr noundef %15, ptr noundef nonnull align 1 dereferenceable(1) %6)
          to label %.noexc14 unwind label %25

.noexc14:                                         ; preds = %.noexc13
  invoke void @_ZNSt7__cxx1112basic_stringIcSt11char_traitsIcESaIcEE12_M_constructIPKcEEvT_S8_St20forward_iterator_tag(ptr noundef nonnull align 8 dereferenceable(32) %5, ptr noundef nonnull @.str.33, ptr noundef nonnull getelementptr inbounds ([26 x i8], ptr @.str.33, i64 0, i64 25))
          to label %_ZNSt7__cxx1112basic_stringIcSt11char_traitsIcESaIcEEC2IS3_EEPKcRKS3_.exit17 unwind label %16

16:                                               ; preds = %.noexc14
  %17 = landingpad { ptr, i32 }
          cleanup
  call void @_ZNSaIcED2Ev(ptr noundef nonnull align 1 dereferenceable(1) %5) #22
  br label %.body15

_ZNSt7__cxx1112basic_stringIcSt11char_traitsIcESaIcEEC2IS3_EEPKcRKS3_.exit17: ; preds = %.noexc14
  invoke void @_ZN6casadi19DeserializingStream6unpackINS_5SliceEEEvRKNSt7__cxx1112basic_stringIcSt11char_traitsIcESaIcEEERT_(ptr noundef nonnull align 8 dereferenceable(41) %1, ptr noundef nonnull align 8 dereferenceable(32) %5, ptr noundef nonnull align 8 dereferenceable(24) %9)
          to label %18 unwind label %27

18:                                               ; preds = %_ZNSt7__cxx1112basic_stringIcSt11char_traitsIcESaIcEEC2IS3_EEPKcRKS3_.exit17
  call void @_ZNSt7__cxx1112basic_stringIcSt11char_traitsIcESaIcEED1Ev(ptr noundef nonnull align 8 dereferenceable(32) %5) #22
  call void @_ZNSaIcED1Ev(ptr noundef nonnull align 1 dereferenceable(1) %6) #22
  ret void

19:                                               ; preds = %8, %2
  %20 = landingpad { ptr, i32 }
          cleanup
  br label %29

21:                                               ; preds = %.noexc, %10
  %22 = landingpad { ptr, i32 }
          cleanup
  br label %.body

23:                                               ; preds = %_ZNSt7__cxx1112basic_stringIcSt11char_traitsIcESaIcEEC2IS3_EEPKcRKS3_.exit
  %24 = landingpad { ptr, i32 }
          cleanup
  call void @_ZNSt7__cxx1112basic_stringIcSt11char_traitsIcESaIcEED1Ev(ptr noundef nonnull align 8 dereferenceable(32) %3) #22
  br label %.body

.body:                                            ; preds = %21, %12, %23
  %.pn = phi { ptr, i32 } [ %24, %23 ], [ %22, %21 ], [ %13, %12 ]
  call void @_ZNSaIcED1Ev(ptr noundef nonnull align 1 dereferenceable(1) %4) #22
  br label %29

25:                                               ; preds = %.noexc13, %14
  %26 = landingpad { ptr, i32 }
          cleanup
  br label %.body15

27:                                               ; preds = %_ZNSt7__cxx1112basic_stringIcSt11char_traitsIcESaIcEEC2IS3_EEPKcRKS3_.exit17
  %28 = landingpad { ptr, i32 }
          cleanup
  call void @_ZNSt7__cxx1112basic_stringIcSt11char_traitsIcESaIcEED1Ev(ptr noundef nonnull align 8 dereferenceable(32) %5) #22
  br label %.body15

.body15:                                          ; preds = %25, %16, %27
  %.pn9 = phi { ptr, i32 } [ %28, %27 ], [ %26, %25 ], [ %17, %16 ]
  call void @_ZNSaIcED1Ev(ptr noundef nonnull align 1 dereferenceable(1) %6) #22
  br label %29

29:                                               ; preds = %.body15, %.body, %19
  %.pn9.pn = phi { ptr, i32 } [ %.pn9, %.body15 ], [ %.pn, %.body ], [ %20, %19 ]
  call void @_ZN6casadi6MXNodeD2Ev(ptr noundef nonnull align 8 dereferenceable(64) %0) #22
  resume { ptr, i32 } %.pn9.pn
}